target datalayout = "e-m:e-p270:32:32-p271:32:32-p272:64:64-i64:64-i128:128-f80:128-n8:16:32:64-S128"
target triple = "x86_64-unknown-linux-gnu"

%"class.std::__cxx11::basic_string" = type { %"struct.std::__cxx11::basic_string<char>::_Alloc_hider", i64, %union.anon }
%"struct.std::__cxx11::basic_string<char>::_Alloc_hider" = type { ptr }
%union.anon = type { i64, [8 x i8] }
%"class.rocksdb::InternalKeyComparator" = type { %"class.rocksdb::CompareInterface", %"class.rocksdb::UserComparatorWrapper" }
%"class.rocksdb::CompareInterface" = type { ptr }
%"class.rocksdb::UserComparatorWrapper" = type { ptr }
%"class.rocksdb::InternalStats" = type { [9 x %"struct.std::atomic"], [14 x i64], [14 x i64], %"class.std::shared_ptr", %"class.std::vector.35", %"class.std::vector.35", %"struct.rocksdb::InternalStats::CompactionStats", %"class.std::vector.40", %"class.rocksdb::HistogramImpl", i8, i32, i64, %"struct.rocksdb::InternalStats::CFStatsSnapshot", %"struct.rocksdb::InternalStats::DBStatsSnapshot", i64, i32, ptr, ptr, i64 }
%"struct.std::atomic" = type { %"struct.std::__atomic_base" }
%"struct.std::__atomic_base" = type { i64 }
%"class.std::shared_ptr" = type { %"class.std::__shared_ptr" }
%"class.std::__shared_ptr" = type { ptr, %"class.std::__shared_count" }
%"class.std::__shared_count" = type { ptr }
%"class.std::vector.35" = type { %"struct.std::_Vector_base.36" }
%"struct.std::_Vector_base.36" = type { %"struct.std::_Vector_base<rocksdb::InternalStats::CompactionStats, std::allocator<rocksdb::InternalStats::CompactionStats>>::_Vector_impl" }
%"struct.std::_Vector_base<rocksdb::InternalStats::CompactionStats, std::allocator<rocksdb::InternalStats::CompactionStats>>::_Vector_impl" = type { %"struct.std::_Vector_base<rocksdb::InternalStats::CompactionStats, std::allocator<rocksdb::InternalStats::CompactionStats>>::_Vector_impl_data" }
%"struct.std::_Vector_base<rocksdb::InternalStats::CompactionStats, std::allocator<rocksdb::InternalStats::CompactionStats>>::_Vector_impl_data" = type { ptr, ptr, ptr }
%"struct.rocksdb::InternalStats::CompactionStats" = type <{ i64, i64, i64, i64, i64, i64, i64, i64, i32, i32, i32, i32, i64, i64, i64, i32, [20 x i32], [4 x i8] }>
%"class.std::vector.40" = type { %"struct.std::_Vector_base.41" }
%"struct.std::_Vector_base.41" = type { %"struct.std::_Vector_base<rocksdb::HistogramImpl, std::allocator<rocksdb::HistogramImpl>>::_Vector_impl" }
%"struct.std::_Vector_base<rocksdb::HistogramImpl, std::allocator<rocksdb::HistogramImpl>>::_Vector_impl" = type { %"struct.std::_Vector_base<rocksdb::HistogramImpl, std::allocator<rocksdb::HistogramImpl>>::_Vector_impl_data" }
%"struct.std::_Vector_base<rocksdb::HistogramImpl, std::allocator<rocksdb::HistogramImpl>>::_Vector_impl_data" = type { ptr, ptr, ptr }
%"class.rocksdb::HistogramImpl" = type { %"class.rocksdb::Histogram", %"struct.rocksdb::HistogramStat", %"class.std::mutex" }
%"class.rocksdb::Histogram" = type { ptr }
%"struct.rocksdb::HistogramStat" = type { %"struct.std::atomic", %"struct.std::atomic", %"struct.std::atomic", %"struct.std::atomic", %"struct.std::atomic", [109 x %"struct.std::atomic"], i64 }
%"class.std::mutex" = type { %"class.std::__mutex_base" }
%"class.std::__mutex_base" = type { %union.pthread_mutex_t }
%union.pthread_mutex_t = type { %struct.__pthread_mutex_s }
%struct.__pthread_mutex_s = type { i32, i32, i32, i32, i32, i16, i16, %struct.__pthread_internal_list }
%struct.__pthread_internal_list = type { ptr, ptr }
%"struct.rocksdb::InternalStats::CFStatsSnapshot" = type { %"struct.rocksdb::InternalStats::CompactionStats", i64, i64, i64, i64, i64, double, i64, i64, i64, i64 }
%"struct.rocksdb::InternalStats::DBStatsSnapshot" = type { i64, i64, i64, i64, i64, i64, i64, i64, double }
%"class.std::shared_ptr.211" = type { %"class.std::__shared_ptr.212" }
%"class.std::__shared_ptr.212" = type { ptr, %"class.std::__shared_count" }
%"class.std::shared_ptr.214" = type { %"class.std::__shared_ptr.215" }
%"class.std::__shared_ptr.215" = type { ptr, %"class.std::__shared_count" }
%"class.std::shared_ptr.217" = type { %"class.std::__shared_ptr.218" }
%"class.std::__shared_ptr.218" = type { ptr, %"class.std::__shared_count" }
%"class.std::shared_ptr.220" = type { %"class.std::__shared_ptr.221" }
%"class.std::__shared_ptr.221" = type { ptr, %"class.std::__shared_count" }
%"class.std::vector.200" = type { %"struct.std::_Vector_base.201" }
%"struct.std::_Vector_base.201" = type { %"struct.std::_Vector_base<rocksdb::DbPath, std::allocator<rocksdb::DbPath>>::_Vector_impl" }
%"struct.std::_Vector_base<rocksdb::DbPath, std::allocator<rocksdb::DbPath>>::_Vector_impl" = type { %"struct.std::_Vector_base<rocksdb::DbPath, std::allocator<rocksdb::DbPath>>::_Vector_impl_data" }
%"struct.std::_Vector_base<rocksdb::DbPath, std::allocator<rocksdb::DbPath>>::_Vector_impl_data" = type { ptr, ptr, ptr }
%"class.std::shared_ptr.223" = type { %"class.std::__shared_ptr.224" }
%"class.std::__shared_ptr.224" = type { ptr, %"class.std::__shared_count" }
%"class.std::vector.226" = type { %"struct.std::_Vector_base.227" }
%"struct.std::_Vector_base.227" = type { %"struct.std::_Vector_base<std::shared_ptr<rocksdb::EventListener>, std::allocator<std::shared_ptr<rocksdb::EventListener>>>::_Vector_impl" }
%"struct.std::_Vector_base<std::shared_ptr<rocksdb::EventListener>, std::allocator<std::shared_ptr<rocksdb::EventListener>>>::_Vector_impl" = type { %"struct.std::_Vector_base<std::shared_ptr<rocksdb::EventListener>, std::allocator<std::shared_ptr<rocksdb::EventListener>>>::_Vector_impl_data" }
%"struct.std::_Vector_base<std::shared_ptr<rocksdb::EventListener>, std::allocator<std::shared_ptr<rocksdb::EventListener>>>::_Vector_impl_data" = type { ptr, ptr, ptr }
%"class.std::shared_ptr.231" = type { %"class.std::__shared_ptr.232" }
%"class.std::__shared_ptr.232" = type { ptr, %"class.std::__shared_count" }
%"class.rocksdb::SmallEnumSet" = type { i64 }
%"class.std::shared_ptr.237" = type { %"class.std::__shared_ptr.238" }
%"class.std::__shared_ptr.238" = type { ptr, %"class.std::__shared_count" }
%"class.std::shared_ptr.234" = type { %"class.std::__shared_ptr.235" }
%"class.std::__shared_ptr.235" = type { ptr, %"class.std::__shared_count" }
%"class.std::shared_ptr.188" = type { %"class.std::__shared_ptr.189" }
%"class.std::__shared_ptr.189" = type { ptr, %"class.std::__shared_count" }
%"class.std::vector.65" = type { %"struct.std::_Vector_base.66" }
%"struct.std::_Vector_base.66" = type { %"struct.std::_Vector_base<unsigned long, std::allocator<unsigned long>>::_Vector_impl" }
%"struct.std::_Vector_base<unsigned long, std::allocator<unsigned long>>::_Vector_impl" = type { %"struct.std::_Vector_base<unsigned long, std::allocator<unsigned long>>::_Vector_impl_data" }
%"struct.std::_Vector_base<unsigned long, std::allocator<unsigned long>>::_Vector_impl_data" = type { ptr, ptr, ptr }
%"struct.std::atomic.171" = type { %"struct.std::__atomic_base.172" }
%"struct.std::__atomic_base.172" = type { i32 }
%"struct.std::atomic.173" = type { %"struct.std::__atomic_base.174" }
%"struct.std::__atomic_base.174" = type { i8 }
%"class.std::unique_ptr.288" = type { %"struct.std::__uniq_ptr_data.289" }
%"struct.std::__uniq_ptr_data.289" = type { %"class.std::__uniq_ptr_impl.290" }
%"class.std::__uniq_ptr_impl.290" = type { %"class.std::tuple.291" }
%"class.std::tuple.291" = type { %"struct.std::_Tuple_impl.292" }
%"struct.std::_Tuple_impl.292" = type { %"struct.std::_Head_base.295" }
%"struct.std::_Head_base.295" = type { ptr }
%"class.std::shared_ptr.191" = type { %"class.std::__shared_ptr.192" }
%"class.std::__shared_ptr.192" = type { ptr, %"class.std::__shared_count" }
%"class.std::shared_ptr.194" = type { %"class.std::__shared_ptr.195" }
%"class.std::__shared_ptr.195" = type { ptr, %"class.std::__shared_count" }
%"class.std::shared_ptr.180" = type { %"class.std::__shared_ptr.181" }
%"class.std::__shared_ptr.181" = type { ptr, %"class.std::__shared_count" }
%"class.std::shared_ptr.197" = type { %"class.std::__shared_ptr.198" }
%"class.std::__shared_ptr.198" = type { ptr, %"class.std::__shared_count" }
%"class.std::vector.183" = type { %"struct.std::_Vector_base.184" }
%"struct.std::_Vector_base.184" = type { %"struct.std::_Vector_base<std::shared_ptr<rocksdb::TablePropertiesCollectorFactory>, std::allocator<std::shared_ptr<rocksdb::TablePropertiesCollectorFactory>>>::_Vector_impl" }
%"struct.std::_Vector_base<std::shared_ptr<rocksdb::TablePropertiesCollectorFactory>, std::allocator<std::shared_ptr<rocksdb::TablePropertiesCollectorFactory>>>::_Vector_impl" = type { %"struct.std::_Vector_base<std::shared_ptr<rocksdb::TablePropertiesCollectorFactory>, std::allocator<std::shared_ptr<rocksdb::TablePropertiesCollectorFactory>>>::_Vector_impl_data" }
%"struct.std::_Vector_base<std::shared_ptr<rocksdb::TablePropertiesCollectorFactory>, std::allocator<std::shared_ptr<rocksdb::TablePropertiesCollectorFactory>>>::_Vector_impl_data" = type { ptr, ptr, ptr }
%"class.std::shared_ptr.155" = type { %"class.std::__shared_ptr.156" }
%"class.std::__shared_ptr.156" = type { ptr, %"class.std::__shared_count" }
%"class.std::shared_ptr.205" = type { %"class.std::__shared_ptr.206" }
%"class.std::__shared_ptr.206" = type { ptr, %"class.std::__shared_count" }
%"class.std::shared_ptr.208" = type { %"class.std::__shared_ptr.209" }
%"class.std::__shared_ptr.209" = type { ptr, %"class.std::__shared_count" }
%"struct.rocksdb::MutableCFOptions" = type { i64, i32, i64, double, i8, i64, i64, i64, %"class.std::shared_ptr.155", double, i8, i64, i64, i32, i32, i32, i64, i8, i64, i32, i64, double, i64, i64, %"class.std::vector.120", %"struct.rocksdb::CompactionOptionsFIFO", %"class.rocksdb::CompactionOptionsUniversal", i8, i64, i64, i8, i8, double, double, i64, i32, i8, i64, i8, i8, i8, i8, i8, [3 x i8], %"struct.rocksdb::CompressionOptions", %"struct.rocksdb::CompressionOptions", i8, i32, i8, i64, %"class.std::vector.163", i32, i32, %"class.std::vector.65" }
%"class.std::vector.120" = type { %"struct.std::_Vector_base.121" }
%"struct.std::_Vector_base.121" = type { %"struct.std::_Vector_base<int, std::allocator<int>>::_Vector_impl" }
%"struct.std::_Vector_base<int, std::allocator<int>>::_Vector_impl" = type { %"struct.std::_Vector_base<int, std::allocator<int>>::_Vector_impl_data" }
%"struct.std::_Vector_base<int, std::allocator<int>>::_Vector_impl_data" = type { ptr, ptr, ptr }
%"struct.rocksdb::CompactionOptionsFIFO" = type { i64, i8, i64, %"class.std::vector.158" }
%"class.std::vector.158" = type { %"struct.std::_Vector_base.159" }
%"struct.std::_Vector_base.159" = type { %"struct.std::_Vector_base<rocksdb::FileTemperatureAge, std::allocator<rocksdb::FileTemperatureAge>>::_Vector_impl" }
%"struct.std::_Vector_base<rocksdb::FileTemperatureAge, std::allocator<rocksdb::FileTemperatureAge>>::_Vector_impl" = type { %"struct.std::_Vector_base<rocksdb::FileTemperatureAge, std::allocator<rocksdb::FileTemperatureAge>>::_Vector_impl_data" }
%"struct.std::_Vector_base<rocksdb::FileTemperatureAge, std::allocator<rocksdb::FileTemperatureAge>>::_Vector_impl_data" = type { ptr, ptr, ptr }
%"class.rocksdb::CompactionOptionsUniversal" = type <{ i32, i32, i32, i32, i32, i32, i8, i8, [2 x i8] }>
%"struct.rocksdb::CompressionOptions" = type <{ i32, i32, i32, i32, i32, i32, i8, [7 x i8], i64, i8, [3 x i8], i32, i8, [7 x i8] }>
%"class.std::vector.163" = type { %"struct.std::_Vector_base.164" }
%"struct.std::_Vector_base.164" = type { %"struct.std::_Vector_base<rocksdb::CompressionType, std::allocator<rocksdb::CompressionType>>::_Vector_impl" }
%"struct.std::_Vector_base<rocksdb::CompressionType, std::allocator<rocksdb::CompressionType>>::_Vector_impl" = type { %"struct.std::_Vector_base<rocksdb::CompressionType, std::allocator<rocksdb::CompressionType>>::_Vector_impl_data" }
%"struct.std::_Vector_base<rocksdb::CompressionType, std::allocator<rocksdb::CompressionType>>::_Vector_impl_data" = type { ptr, ptr, ptr }
%"class.rocksdb::ColumnFamilyData" = type { i32, %"class.std::__cxx11::basic_string", ptr, ptr, %"struct.std::atomic.171", %"struct.std::atomic.173", %"struct.std::atomic.173", %"class.rocksdb::InternalKeyComparator", %"class.std::vector.175", %"struct.rocksdb::ColumnFamilyOptions", %"struct.rocksdb::ImmutableOptions", %"struct.rocksdb::MutableCFOptions", i8, %"class.std::unique_ptr.240", %"class.std::unique_ptr.248", %"class.std::unique_ptr.256", %"class.std::unique_ptr.264", ptr, ptr, %"class.rocksdb::MemTableList", ptr, %"struct.std::atomic", %"class.std::unique_ptr.272", ptr, ptr, i64, %"class.std::unique_ptr.280", ptr, %"class.std::unique_ptr.288", i8, i8, i64, i8, %"struct.std::atomic", %"class.std::vector.296", i8, %"class.std::__cxx11::basic_string", %"class.std::shared_ptr.301", i8, %"struct.std::atomic" }
%"class.std::vector.175" = type { %"struct.std::_Vector_base.176" }
%"struct.std::_Vector_base.176" = type { %"struct.std::_Vector_base<std::unique_ptr<rocksdb::IntTblPropCollectorFactory>, std::allocator<std::unique_ptr<rocksdb::IntTblPropCollectorFactory>>>::_Vector_impl" }
%"struct.std::_Vector_base<std::unique_ptr<rocksdb::IntTblPropCollectorFactory>, std::allocator<std::unique_ptr<rocksdb::IntTblPropCollectorFactory>>>::_Vector_impl" = type { %"struct.std::_Vector_base<std::unique_ptr<rocksdb::IntTblPropCollectorFactory>, std::allocator<std::unique_ptr<rocksdb::IntTblPropCollectorFactory>>>::_Vector_impl_data" }
%"struct.std::_Vector_base<std::unique_ptr<rocksdb::IntTblPropCollectorFactory>, std::allocator<std::unique_ptr<rocksdb::IntTblPropCollectorFactory>>>::_Vector_impl_data" = type { ptr, ptr, ptr }
%"struct.rocksdb::ColumnFamilyOptions" = type <{ %"struct.rocksdb::AdvancedColumnFamilyOptions", ptr, %"class.std::shared_ptr.191", ptr, %"class.std::shared_ptr.194", i64, i8, i8, [6 x i8], %"struct.rocksdb::CompressionOptions", %"struct.rocksdb::CompressionOptions", i32, [4 x i8], %"class.std::shared_ptr.155", i64, i64, i8, [7 x i8], %"class.std::shared_ptr.197", %"class.std::vector.200", %"class.std::shared_ptr.205", %"class.std::shared_ptr.208", i32, [4 x i8] }>
%"struct.rocksdb::AdvancedColumnFamilyOptions" = type { i32, i32, i32, i64, i8, i64, double, ptr, double, i8, i64, %"class.std::shared_ptr.155", i32, i64, %"class.std::vector.163", i32, i32, i32, i64, i32, i8, i8, double, %"class.std::vector.120", i64, i8, i64, i64, i8, i8, [2 x i8], %"class.rocksdb::CompactionOptionsUniversal", %"struct.rocksdb::CompactionOptionsFIFO", i64, %"class.std::shared_ptr.180", %"class.std::vector.183", i64, i8, i8, i8, i8, i8, i64, i64, i64, i8, i8, i8, i64, i64, i8, i64, i64, i8, i8, double, double, i64, i32, %"class.std::shared_ptr.188", i8, i32, i8, i8, i32 }
%"struct.rocksdb::ImmutableOptions" = type { %"struct.rocksdb::ImmutableDBOptions.base", [7 x i8], %"struct.rocksdb::ImmutableCFOptions.base", [7 x i8] }
%"struct.rocksdb::ImmutableDBOptions.base" = type <{ i8, i8, i8, i8, i8, i8, i8, i8, ptr, %"class.std::shared_ptr.211", %"class.std::shared_ptr.214", %"class.std::shared_ptr.217", i8, [3 x i8], i32, %"class.std::shared_ptr.220", i8, [7 x i8], %"class.std::vector.200", %"class.std::__cxx11::basic_string", %"class.std::__cxx11::basic_string", i64, i64, i64, i64, i64, i32, [4 x i8], i64, i64, i64, i64, i8, i8, i8, i8, i8, i8, i8, i8, i64, %"class.std::shared_ptr.223", i32, [4 x i8], i64, i8, [7 x i8], %"class.std::vector.226", i8, i8, i8, i8, i8, [3 x i8], i64, i64, i8, i8, i8, i8, [4 x i8], %"class.std::shared_ptr.188", ptr, i8, i8, i8, i8, i8, i8, i8, i8, i8, i8, i8, [5 x i8], i64, %"class.std::shared_ptr.231", i8, [3 x i8], i32, i64, i8, [7 x i8], %"class.std::__cxx11::basic_string", %"class.rocksdb::SmallEnumSet", i8, [7 x i8], %"class.std::shared_ptr.234", ptr, ptr, ptr, %"class.std::shared_ptr.237", i8 }>
%"struct.rocksdb::ImmutableCFOptions.base" = type <{ i8, i8, [6 x i8], ptr, %"class.rocksdb::InternalKeyComparator", %"class.std::shared_ptr.191", ptr, %"class.std::shared_ptr.194", i32, i32, i64, i8, [7 x i8], ptr, %"class.std::shared_ptr.180", %"class.std::shared_ptr.197", %"class.std::vector.183", i32, i8, i8, [2 x i8], i32, i8, i8, i8, i8, i64, i64, %"class.std::shared_ptr.155", %"class.std::vector.200", %"class.std::shared_ptr.205", %"class.std::shared_ptr.208", %"class.std::shared_ptr.188", i8 }>
%"class.std::unique_ptr.240" = type { %"struct.std::__uniq_ptr_data.241" }
%"struct.std::__uniq_ptr_data.241" = type { %"class.std::__uniq_ptr_impl.242" }
%"class.std::__uniq_ptr_impl.242" = type { %"class.std::tuple.243" }
%"class.std::tuple.243" = type { %"struct.std::_Tuple_impl.244" }
%"struct.std::_Tuple_impl.244" = type { %"struct.std::_Head_base.247" }
%"struct.std::_Head_base.247" = type { ptr }
%"class.std::unique_ptr.248" = type { %"struct.std::__uniq_ptr_data.249" }
%"struct.std::__uniq_ptr_data.249" = type { %"class.std::__uniq_ptr_impl.250" }
%"class.std::__uniq_ptr_impl.250" = type { %"class.std::tuple.251" }
%"class.std::tuple.251" = type { %"struct.std::_Tuple_impl.252" }
%"struct.std::_Tuple_impl.252" = type { %"struct.std::_Head_base.255" }
%"struct.std::_Head_base.255" = type { ptr }
%"class.std::unique_ptr.256" = type { %"struct.std::__uniq_ptr_data.257" }
%"struct.std::__uniq_ptr_data.257" = type { %"class.std::__uniq_ptr_impl.258" }
%"class.std::__uniq_ptr_impl.258" = type { %"class.std::tuple.259" }
%"class.std::tuple.259" = type { %"struct.std::_Tuple_impl.260" }
%"struct.std::_Tuple_impl.260" = type { %"struct.std::_Head_base.263" }
%"struct.std::_Head_base.263" = type { ptr }
%"class.std::unique_ptr.264" = type { %"struct.std::__uniq_ptr_data.265" }
%"struct.std::__uniq_ptr_data.265" = type { %"class.std::__uniq_ptr_impl.266" }
%"class.std::__uniq_ptr_impl.266" = type { %"class.std::tuple.267" }
%"class.std::tuple.267" = type { %"struct.std::_Tuple_impl.268" }
%"struct.std::_Tuple_impl.268" = type { %"struct.std::_Head_base.271" }
%"struct.std::_Head_base.271" = type { ptr }
%"class.rocksdb::MemTableList" = type <{ %"struct.std::atomic.173", %"struct.std::atomic.173", [2 x i8], i32, ptr, i32, i8, i8, [2 x i8], i64, %"struct.std::atomic", %"struct.std::atomic.173", [7 x i8] }>
%"class.std::unique_ptr.272" = type { %"struct.std::__uniq_ptr_data.273" }
%"struct.std::__uniq_ptr_data.273" = type { %"class.std::__uniq_ptr_impl.274" }
%"class.std::__uniq_ptr_impl.274" = type { %"class.std::tuple.275" }
%"class.std::tuple.275" = type { %"struct.std::_Tuple_impl.276" }
%"struct.std::_Tuple_impl.276" = type { %"struct.std::_Head_base.279" }
%"struct.std::_Head_base.279" = type { ptr }
%"class.std::unique_ptr.280" = type { %"struct.std::__uniq_ptr_data.281" }
%"struct.std::__uniq_ptr_data.281" = type { %"class.std::__uniq_ptr_impl.282" }
%"class.std::__uniq_ptr_impl.282" = type { %"class.std::tuple.283" }
%"class.std::tuple.283" = type { %"struct.std::_Tuple_impl.284" }
%"struct.std::_Tuple_impl.284" = type { %"struct.std::_Head_base.287" }
%"struct.std::_Head_base.287" = type { ptr }
%"class.std::vector.296" = type { %"struct.std::_Vector_base.297" }
%"struct.std::_Vector_base.297" = type { %"struct.std::_Vector_base<std::shared_ptr<rocksdb::FSDirectory>, std::allocator<std::shared_ptr<rocksdb::FSDirectory>>>::_Vector_impl" }
%"struct.std::_Vector_base<std::shared_ptr<rocksdb::FSDirectory>, std::allocator<std::shared_ptr<rocksdb::FSDirectory>>>::_Vector_impl" = type { %"struct.std::_Vector_base<std::shared_ptr<rocksdb::FSDirectory>, std::allocator<std::shared_ptr<rocksdb::FSDirectory>>>::_Vector_impl_data" }
%"struct.std::_Vector_base<std::shared_ptr<rocksdb::FSDirectory>, std::allocator<std::shared_ptr<rocksdb::FSDirectory>>>::_Vector_impl_data" = type { ptr, ptr, ptr }
%"class.std::shared_ptr.301" = type { %"class.std::__shared_ptr.302" }
%"class.std::__shared_ptr.302" = type { ptr, %"class.std::__shared_count" }

; Function Attrs: mustprogress nounwind uwtable
define linkonce_odr noundef ptr @_ZNK7rocksdb12MemTableList7currentEv(ptr noundef nonnull align 8 dereferenceable(41) %this) #1 comdat align 2 {
entry:
  %this.addr = alloca ptr, align 8
  store ptr %this, ptr %this.addr, align 8
  %this1 = load ptr, ptr %this.addr, align 8
  %current_ = getelementptr inbounds %"class.rocksdb::MemTableList", ptr %this1, i32 0, i32 4
  %0 = load ptr, ptr %current_, align 8
  ret ptr %0
}

; Function Attrs: mustprogress nounwind uwtable
define linkonce_odr noundef ptr @_ZN7rocksdb16ColumnFamilyData3immEv(ptr noundef nonnull align 8 dereferenceable(2656) %this) #1 comdat align 2 {
entry:
  %this.addr = alloca ptr, align 8
  store ptr %this, ptr %this.addr, align 8
  %this1 = load ptr, ptr %this.addr, align 8
  %imm_ = getelementptr inbounds %"class.rocksdb::ColumnFamilyData", ptr %this1, i32 0, i32 19
  ret ptr %imm_
}

; Function Attrs: mustprogress uwtable
define noundef zeroext i1 @_ZN7rocksdb13InternalStats28HandleNumEntriesImmMemTablesEPmPNS_6DBImplEPNS_7VersionE(ptr noundef nonnull align 8 dereferenceable(1944) %this, ptr noundef %value, ptr noundef %0, ptr noundef %1) #0 align 2 {
entry:
  %this.addr = alloca ptr, align 8
  %value.addr = alloca ptr, align 8
  %.addr = alloca ptr, align 8
  %.addr1 = alloca ptr, align 8
  store ptr %this, ptr %this.addr, align 8
  store ptr %value, ptr %value.addr, align 8
  store ptr %0, ptr %.addr, align 8
  store ptr %1, ptr %.addr1, align 8
  %this2 = load ptr, ptr %this.addr, align 8
  %cfd_ = getelementptr inbounds %"class.rocksdb::InternalStats", ptr %this2, i32 0, i32 17
  %2 = load ptr, ptr %cfd_, align 8
  %call = call noundef ptr @_ZN7rocksdb16ColumnFamilyData3immEv(ptr noundef nonnull align 8 dereferenceable(2656) %2)
  %call3 = call noundef ptr @_ZNK7rocksdb12MemTableList7currentEv(ptr noundef nonnull align 8 dereferenceable(41) %call)
  %call4 = call noundef i64 @_ZNK7rocksdb19MemTableListVersion18GetTotalNumEntriesEv(ptr noundef nonnull align 8 dereferenceable(80) %call3)
  %3 = load ptr, ptr %value.addr, align 8
  store i64 %call4, ptr %3, align 8
  ret i1 true
}