; Function Attrs: mustprogress uwtable
define noundef zeroext i1 @_ZN7rocksdb13InternalStats28HandleNumEntriesImmMemTablesEPmPNS_6DBImplEPNS_7VersionE(ptr nocapture noundef nonnull readonly align 8 dereferenceable(1944) %this, ptr nocapture noundef writeonly %value, ptr nocapture readnone %0, ptr nocapture readnone %1) #4 align 2 {
entry:
  %cfd_ = getelementptr inbounds i8, ptr %this, i64 1928
  %2 = load ptr, ptr %cfd_, align 8
  %current_.i = getelementptr inbounds i8, ptr %2, i64 2416
  %3 = load ptr, ptr %current_.i, align 8
  %call4 = tail call noundef i64 @_ZNK7rocksdb19MemTableListVersion18GetTotalNumEntriesEv(ptr noundef nonnull align 8 dereferenceable(80) %3)
  store i64 %call4, ptr %value, align 8
  ret i1 true
}